; Function Attrs: mustprogress uwtable
define noundef double @_ZNK8QuantLib16BlackAtmVolCurve11atmVarianceERKNS_6PeriodEb(ptr noundef nonnull align 8 dereferenceable(68) %this, ptr noundef nonnull align 4 dereferenceable(8) %optionTenor, i1 noundef zeroext %extrapolate) local_unnamed_addr #5 align 2 personality ptr @__gxx_personality_v0 {
entry:
  %ref.tmp.i = alloca %"class.QuantLib::Calendar", align 8
  %d = alloca %"class.QuantLib::Date", align 8
  call void @llvm.lifetime.start.p0(i64 8, ptr nonnull %d) #20
  call void @llvm.lifetime.start.p0(i64 16, ptr nonnull %ref.tmp.i) #20
  %vtable.i = load ptr, ptr %this, align 8, !tbaa !22
  %vfn.i = getelementptr inbounds i8, ptr %vtable.i, i64 48
  %0 = load ptr, ptr %vfn.i, align 8
  call void %0(ptr dead_on_unwind nonnull writable sret(%"class.QuantLib::Calendar") align 8 %ref.tmp.i, ptr noundef nonnull align 8 dereferenceable(64) %this)
  %vtable2.i = load ptr, ptr %this, align 8, !tbaa !22
  %vfn3.i = getelementptr inbounds i8, ptr %vtable2.i, i64 40
  %1 = load ptr, ptr %vfn3.i, align 8
  %call.i = invoke noundef nonnull align 8 dereferenceable(8) ptr %1(ptr noundef nonnull align 8 dereferenceable(64) %this)
          to label %invoke.cont.i unwind label %lpad.i

invoke.cont.i:                                    ; preds = %entry
  %vtable4.i = load ptr, ptr %this, align 8, !tbaa !22
  %vfn5.i = getelementptr inbounds i8, ptr %vtable4.i, i64 72
  %2 = load ptr, ptr %vfn5.i, align 8
  %call7.i = invoke noundef i32 %2(ptr noundef nonnull align 8 dereferenceable(68) %this)
          to label %invoke.cont6.i unwind label %lpad.i

invoke.cont6.i:                                   ; preds = %invoke.cont.i
  %call9.i = invoke i64 @_ZNK8QuantLib8Calendar7advanceERKNS_4DateERKNS_6PeriodENS_21BusinessDayConventionEb(ptr noundef nonnull align 8 dereferenceable(16) %ref.tmp.i, ptr noundef nonnull align 8 dereferenceable(8) %call.i, ptr noundef nonnull align 4 dereferenceable(8) %optionTenor, i32 noundef %call7.i, i1 noundef zeroext false)
          to label %invoke.cont8.i unwind label %lpad.i

invoke.cont8.i:                                   ; preds = %invoke.cont6.i
  %pn.i.i.i = getelementptr inbounds nuw i8, ptr %ref.tmp.i, i64 8
  %3 = load ptr, ptr %pn.i.i.i, align 8, !tbaa !9
  %cmp.not.i.i.i.i = icmp eq ptr %3, null
  br i1 %cmp.not.i.i.i.i, label %_ZNK8QuantLib23VolatilityTermStructure19optionDateFromTenorERKNS_6PeriodE.exit, label %if.then.i.i.i.i

if.then.i.i.i.i:                                  ; preds = %invoke.cont8.i
  %use_count_.i.i.i.i.i = getelementptr inbounds nuw i8, ptr %3, i64 8
  %4 = atomicrmw sub ptr %use_count_.i.i.i.i.i, i32 1 acq_rel, align 4
  %cmp.i.i.i.i.i = icmp eq i32 %4, 1
  br i1 %cmp.i.i.i.i.i, label %if.then.i.i.i.i.i, label %_ZNK8QuantLib23VolatilityTermStructure19optionDateFromTenorERKNS_6PeriodE.exit

if.then.i.i.i.i.i:                                ; preds = %if.then.i.i.i.i
  %vtable.i.i.i.i.i = load ptr, ptr %3, align 8, !tbaa !22
  %vfn.i.i.i.i.i = getelementptr inbounds i8, ptr %vtable.i.i.i.i.i, i64 16
  %5 = load ptr, ptr %vfn.i.i.i.i.i, align 8
  invoke void %5(ptr noundef nonnull align 8 dereferenceable(16) %3)
          to label %.noexc.i.i.i.i unwind label %terminate.lpad.i.i.i.i

.noexc.i.i.i.i:                                   ; preds = %if.then.i.i.i.i.i
  %weak_count_.i.i.i.i.i.i = getelementptr inbounds nuw i8, ptr %3, i64 12
  %6 = atomicrmw sub ptr %weak_count_.i.i.i.i.i.i, i32 1 acq_rel, align 4
  %cmp.i.i.i.i.i.i = icmp eq i32 %6, 1
  br i1 %cmp.i.i.i.i.i.i, label %if.then.i.i.i.i.i.i, label %_ZNK8QuantLib23VolatilityTermStructure19optionDateFromTenorERKNS_6PeriodE.exit

if.then.i.i.i.i.i.i:                              ; preds = %.noexc.i.i.i.i
  %vtable.i.i.i.i.i.i = load ptr, ptr %3, align 8, !tbaa !22
  %vfn.i.i.i.i.i.i = getelementptr inbounds i8, ptr %vtable.i.i.i.i.i.i, i64 24
  %7 = load ptr, ptr %vfn.i.i.i.i.i.i, align 8
  invoke void %7(ptr noundef nonnull align 8 dereferenceable(16) %3)
          to label %_ZNK8QuantLib23VolatilityTermStructure19optionDateFromTenorERKNS_6PeriodE.exit unwind label %terminate.lpad.i.i.i.i

terminate.lpad.i.i.i.i:                           ; preds = %if.then.i.i.i.i.i.i, %if.then.i.i.i.i.i
  %8 = landingpad { ptr, i32 }
          catch ptr null
  %9 = extractvalue { ptr, i32 } %8, 0
  call void @__clang_call_terminate(ptr %9) #21
  unreachable

lpad.i:                                           ; preds = %invoke.cont6.i, %invoke.cont.i, %entry
  %10 = landingpad { ptr, i32 }
          cleanup
  call void @_ZN8QuantLib8CalendarD2Ev(ptr noundef nonnull align 8 dereferenceable(16) %ref.tmp.i) #20
  call void @llvm.lifetime.end.p0(i64 16, ptr nonnull %ref.tmp.i) #20
  resume { ptr, i32 } %10

_ZNK8QuantLib23VolatilityTermStructure19optionDateFromTenorERKNS_6PeriodE.exit: ; preds = %invoke.cont8.i, %if.then.i.i.i.i, %.noexc.i.i.i.i, %if.then.i.i.i.i.i.i
  call void @llvm.lifetime.end.p0(i64 16, ptr nonnull %ref.tmp.i) #20
  store i64 %call9.i, ptr %d, align 8
  %call.i1 = call noundef double @_ZNK8QuantLib13TermStructure17timeFromReferenceERKNS_4DateE(ptr noundef nonnull align 8 dereferenceable(64) %this, ptr noundef nonnull align 8 dereferenceable(8) %d)
  call void @_ZNK8QuantLib13TermStructure10checkRangeEdb(ptr noundef nonnull align 8 dereferenceable(64) %this, double noundef %call.i1, i1 noundef zeroext %extrapolate)
  %vtable.i.i = load ptr, ptr %this, align 8, !tbaa !22
  %vfn.i.i = getelementptr inbounds i8, ptr %vtable.i.i, i64 104
  %11 = load ptr, ptr %vfn.i.i, align 8
  %call.i.i = call noundef double %11(ptr noundef nonnull align 8 dereferenceable(68) %this, double noundef %call.i1)
  call void @llvm.lifetime.end.p0(i64 8, ptr nonnull %d) #20
  ret double %call.i.i
}